target datalayout = "e-m:e-p270:32:32-p271:32:32-p272:64:64-i64:64-i128:128-f80:128-n8:16:32:64-S128"
target triple = "x86_64-pc-linux-gnu"

%struct.aiMaterial = type { ptr, i32, i32 }
%struct.aiMaterialProperty = type { %struct.aiString, i32, i32, i32, i32, ptr }
%struct.aiString = type { i32, [1024 x i8] }

; Function Attrs: inlinehint mustprogress nounwind uwtable
define linkonce_odr hidden noundef i32 @_Z13SuperFastHashPKcjj(ptr noundef %0, i32 noundef %1, i32 noundef %2) #4 comdat {
  %4 = alloca i32, align 4
  %5 = alloca ptr, align 8
  %6 = alloca i32, align 4
  %7 = alloca i32, align 4
  %8 = alloca i32, align 4
  %9 = alloca i32, align 4
  %10 = alloca i32, align 4
  store ptr %0, ptr %5, align 8
  store i32 %1, ptr %6, align 4
  store i32 %2, ptr %7, align 4
  call void @llvm.lifetime.start.p0(i64 4, ptr %8) #17
  call void @llvm.lifetime.start.p0(i64 4, ptr %9) #17
  %11 = load ptr, ptr %5, align 8
  %12 = icmp eq ptr %11, null
  br i1 %12, label %13, label %14

13:                                               ; preds = %3
  store i32 0, ptr %4, align 4
  store i32 1, ptr %10, align 4
  br label %162

14:                                               ; preds = %3
  %15 = load i32, ptr %6, align 4
  %16 = icmp eq i32 %15, 0
  br i1 %16, label %17, label %21

17:                                               ; preds = %14
  %18 = load ptr, ptr %5, align 8
  %19 = call i64 @strlen(ptr noundef %18) #18
  %20 = trunc i64 %19 to i32
  store i32 %20, ptr %6, align 4
  br label %21

21:                                               ; preds = %17, %14
  %22 = load i32, ptr %6, align 4
  %23 = and i32 %22, 3
  store i32 %23, ptr %9, align 4
  %24 = load i32, ptr %6, align 4
  %25 = lshr i32 %24, 2
  store i32 %25, ptr %6, align 4
  br label %26

26:                                               ; preds = %67, %21
  %27 = load i32, ptr %6, align 4
  %28 = icmp ugt i32 %27, 0
  br i1 %28, label %29, label %70

29:                                               ; preds = %26
  %30 = load ptr, ptr %5, align 8
  %31 = getelementptr inbounds i8, ptr %30, i64 1
  %32 = load i8, ptr %31, align 1
  %33 = zext i8 %32 to i32
  %34 = shl i32 %33, 8
  %35 = load ptr, ptr %5, align 8
  %36 = getelementptr inbounds i8, ptr %35, i64 0
  %37 = load i8, ptr %36, align 1
  %38 = zext i8 %37 to i32
  %39 = add i32 %34, %38
  %40 = load i32, ptr %7, align 4
  %41 = add i32 %40, %39
  store i32 %41, ptr %7, align 4
  %42 = load ptr, ptr %5, align 8
  %43 = getelementptr inbounds i8, ptr %42, i64 2
  %44 = getelementptr inbounds i8, ptr %43, i64 1
  %45 = load i8, ptr %44, align 1
  %46 = zext i8 %45 to i32
  %47 = shl i32 %46, 8
  %48 = load ptr, ptr %5, align 8
  %49 = getelementptr inbounds i8, ptr %48, i64 2
  %50 = getelementptr inbounds i8, ptr %49, i64 0
  %51 = load i8, ptr %50, align 1
  %52 = zext i8 %51 to i32
  %53 = add i32 %47, %52
  %54 = shl i32 %53, 11
  %55 = load i32, ptr %7, align 4
  %56 = xor i32 %54, %55
  store i32 %56, ptr %8, align 4
  %57 = load i32, ptr %7, align 4
  %58 = shl i32 %57, 16
  %59 = load i32, ptr %8, align 4
  %60 = xor i32 %58, %59
  store i32 %60, ptr %7, align 4
  %61 = load ptr, ptr %5, align 8
  %62 = getelementptr inbounds nuw i8, ptr %61, i64 4
  store ptr %62, ptr %5, align 8
  %63 = load i32, ptr %7, align 4
  %64 = lshr i32 %63, 11
  %65 = load i32, ptr %7, align 4
  %66 = add i32 %65, %64
  store i32 %66, ptr %7, align 4
  br label %67

67:                                               ; preds = %29
  %68 = load i32, ptr %6, align 4
  %69 = add i32 %68, -1
  store i32 %69, ptr %6, align 4
  br label %26, !llvm.loop !24

70:                                               ; preds = %26
  %71 = load i32, ptr %9, align 4
  switch i32 %71, label %136 [
    i32 3, label %72
    i32 2, label %101
    i32 1, label %122
  ]

72:                                               ; preds = %70
  %73 = load ptr, ptr %5, align 8
  %74 = getelementptr inbounds i8, ptr %73, i64 1
  %75 = load i8, ptr %74, align 1
  %76 = zext i8 %75 to i32
  %77 = shl i32 %76, 8
  %78 = load ptr, ptr %5, align 8
  %79 = getelementptr inbounds i8, ptr %78, i64 0
  %80 = load i8, ptr %79, align 1
  %81 = zext i8 %80 to i32
  %82 = add i32 %77, %81
  %83 = load i32, ptr %7, align 4
  %84 = add i32 %83, %82
  store i32 %84, ptr %7, align 4
  %85 = load i32, ptr %7, align 4
  %86 = shl i32 %85, 16
  %87 = load i32, ptr %7, align 4
  %88 = xor i32 %87, %86
  store i32 %88, ptr %7, align 4
  %89 = load ptr, ptr %5, align 8
  %90 = getelementptr inbounds nuw i8, ptr %89, i64 2
  %91 = load i8, ptr %90, align 1
  %92 = sext i8 %91 to i32
  %93 = call i32 @llvm.abs.i32(i32 %92, i1 true)
  %94 = shl i32 %93, 18
  %95 = load i32, ptr %7, align 4
  %96 = xor i32 %95, %94
  store i32 %96, ptr %7, align 4
  %97 = load i32, ptr %7, align 4
  %98 = lshr i32 %97, 11
  %99 = load i32, ptr %7, align 4
  %100 = add i32 %99, %98
  store i32 %100, ptr %7, align 4
  br label %136

101:                                              ; preds = %70
  %102 = load ptr, ptr %5, align 8
  %103 = getelementptr inbounds i8, ptr %102, i64 1
  %104 = load i8, ptr %103, align 1
  %105 = zext i8 %104 to i32
  %106 = shl i32 %105, 8
  %107 = load ptr, ptr %5, align 8
  %108 = getelementptr inbounds i8, ptr %107, i64 0
  %109 = load i8, ptr %108, align 1
  %110 = zext i8 %109 to i32
  %111 = add i32 %106, %110
  %112 = load i32, ptr %7, align 4
  %113 = add i32 %112, %111
  store i32 %113, ptr %7, align 4
  %114 = load i32, ptr %7, align 4
  %115 = shl i32 %114, 11
  %116 = load i32, ptr %7, align 4
  %117 = xor i32 %116, %115
  store i32 %117, ptr %7, align 4
  %118 = load i32, ptr %7, align 4
  %119 = lshr i32 %118, 17
  %120 = load i32, ptr %7, align 4
  %121 = add i32 %120, %119
  store i32 %121, ptr %7, align 4
  br label %136

122:                                              ; preds = %70
  %123 = load ptr, ptr %5, align 8
  %124 = load i8, ptr %123, align 1
  %125 = sext i8 %124 to i32
  %126 = load i32, ptr %7, align 4
  %127 = add i32 %126, %125
  store i32 %127, ptr %7, align 4
  %128 = load i32, ptr %7, align 4
  %129 = shl i32 %128, 10
  %130 = load i32, ptr %7, align 4
  %131 = xor i32 %130, %129
  store i32 %131, ptr %7, align 4
  %132 = load i32, ptr %7, align 4
  %133 = lshr i32 %132, 1
  %134 = load i32, ptr %7, align 4
  %135 = add i32 %134, %133
  store i32 %135, ptr %7, align 4
  br label %136

136:                                              ; preds = %122, %70, %101, %72
  %137 = load i32, ptr %7, align 4
  %138 = shl i32 %137, 3
  %139 = load i32, ptr %7, align 4
  %140 = xor i32 %139, %138
  store i32 %140, ptr %7, align 4
  %141 = load i32, ptr %7, align 4
  %142 = lshr i32 %141, 5
  %143 = load i32, ptr %7, align 4
  %144 = add i32 %143, %142
  store i32 %144, ptr %7, align 4
  %145 = load i32, ptr %7, align 4
  %146 = shl i32 %145, 4
  %147 = load i32, ptr %7, align 4
  %148 = xor i32 %147, %146
  store i32 %148, ptr %7, align 4
  %149 = load i32, ptr %7, align 4
  %150 = lshr i32 %149, 17
  %151 = load i32, ptr %7, align 4
  %152 = add i32 %151, %150
  store i32 %152, ptr %7, align 4
  %153 = load i32, ptr %7, align 4
  %154 = shl i32 %153, 25
  %155 = load i32, ptr %7, align 4
  %156 = xor i32 %155, %154
  store i32 %156, ptr %7, align 4
  %157 = load i32, ptr %7, align 4
  %158 = lshr i32 %157, 6
  %159 = load i32, ptr %7, align 4
  %160 = add i32 %159, %158
  store i32 %160, ptr %7, align 4
  %161 = load i32, ptr %7, align 4
  store i32 %161, ptr %4, align 4
  store i32 1, ptr %10, align 4
  br label %162

162:                                              ; preds = %136, %13
  call void @llvm.lifetime.end.p0(i64 4, ptr %9) #17
  call void @llvm.lifetime.end.p0(i64 4, ptr %8) #17
  %163 = load i32, ptr %4, align 4
  ret i32 %163
}

; Function Attrs: mustprogress uwtable
define hidden noundef i32 @_ZN6Assimp19ComputeMaterialHashEPK10aiMaterialb(ptr noundef %0, i1 noundef zeroext %1) #3 {
  %3 = alloca ptr, align 8
  %4 = alloca i8, align 1
  %5 = alloca i32, align 4
  %6 = alloca i32, align 4
  %7 = alloca ptr, align 8
  store ptr %0, ptr %3, align 8
  %8 = zext i1 %1 to i8
  store i8 %8, ptr %4, align 1
  call void @llvm.lifetime.start.p0(i64 4, ptr %5) #17
  store i32 1503, ptr %5, align 4
  call void @llvm.lifetime.start.p0(i64 4, ptr %6) #17
  store i32 0, ptr %6, align 4
  br label %9

9:                                                ; preds = %65, %2
  %10 = load i32, ptr %6, align 4
  %11 = load ptr, ptr %3, align 8
  %12 = getelementptr inbounds nuw %struct.aiMaterial, ptr %11, i32 0, i32 1
  %13 = load i32, ptr %12, align 8
  %14 = icmp ult i32 %10, %13
  br i1 %14, label %16, label %15

15:                                               ; preds = %9
  call void @llvm.lifetime.end.p0(i64 4, ptr %6) #17
  br label %68

16:                                               ; preds = %9
  call void @llvm.lifetime.start.p0(i64 8, ptr %7) #17
  %17 = load ptr, ptr %3, align 8
  %18 = getelementptr inbounds nuw %struct.aiMaterial, ptr %17, i32 0, i32 0
  %19 = load ptr, ptr %18, align 8
  %20 = load i32, ptr %6, align 4
  %21 = zext i32 %20 to i64
  %22 = getelementptr inbounds nuw ptr, ptr %19, i64 %21
  %23 = load ptr, ptr %22, align 8
  store ptr %23, ptr %7, align 8
  %24 = load ptr, ptr %7, align 8
  %25 = icmp ne ptr null, %24
  br i1 %25, label %26, label %64

26:                                               ; preds = %16
  %27 = load i8, ptr %4, align 1, !range !9, !noundef !10
  %28 = trunc i8 %27 to i1
  br i1 %28, label %37, label %29

29:                                               ; preds = %26
  %30 = load ptr, ptr %7, align 8
  %31 = getelementptr inbounds nuw %struct.aiMaterialProperty, ptr %30, i32 0, i32 0
  %32 = getelementptr inbounds nuw %struct.aiString, ptr %31, i32 0, i32 1
  %33 = getelementptr inbounds [1024 x i8], ptr %32, i64 0, i64 0
  %34 = load i8, ptr %33, align 4
  %35 = sext i8 %34 to i32
  %36 = icmp ne i32 %35, 63
  br i1 %36, label %37, label %64

37:                                               ; preds = %29, %26
  %38 = load ptr, ptr %7, align 8
  %39 = getelementptr inbounds nuw %struct.aiMaterialProperty, ptr %38, i32 0, i32 0
  %40 = getelementptr inbounds nuw %struct.aiString, ptr %39, i32 0, i32 1
  %41 = getelementptr inbounds [1024 x i8], ptr %40, i64 0, i64 0
  %42 = load ptr, ptr %7, align 8
  %43 = getelementptr inbounds nuw %struct.aiMaterialProperty, ptr %42, i32 0, i32 0
  %44 = getelementptr inbounds nuw %struct.aiString, ptr %43, i32 0, i32 0
  %45 = load i32, ptr %44, align 8
  %46 = load i32, ptr %5, align 4
  %47 = call noundef i32 @_Z13SuperFastHashPKcjj(ptr noundef %41, i32 noundef %45, i32 noundef %46)
  store i32 %47, ptr %5, align 4
  %48 = load ptr, ptr %7, align 8
  %49 = getelementptr inbounds nuw %struct.aiMaterialProperty, ptr %48, i32 0, i32 5
  %50 = load ptr, ptr %49, align 8
  %51 = load ptr, ptr %7, align 8
  %52 = getelementptr inbounds nuw %struct.aiMaterialProperty, ptr %51, i32 0, i32 3
  %53 = load i32, ptr %52, align 4
  %54 = load i32, ptr %5, align 4
  %55 = call noundef i32 @_Z13SuperFastHashPKcjj(ptr noundef %50, i32 noundef %53, i32 noundef %54)
  store i32 %55, ptr %5, align 4
  %56 = load ptr, ptr %7, align 8
  %57 = getelementptr inbounds nuw %struct.aiMaterialProperty, ptr %56, i32 0, i32 1
  %58 = load i32, ptr %5, align 4
  %59 = call noundef i32 @_Z13SuperFastHashPKcjj(ptr noundef %57, i32 noundef 4, i32 noundef %58)
  store i32 %59, ptr %5, align 4
  %60 = load ptr, ptr %7, align 8
  %61 = getelementptr inbounds nuw %struct.aiMaterialProperty, ptr %60, i32 0, i32 2
  %62 = load i32, ptr %5, align 4
  %63 = call noundef i32 @_Z13SuperFastHashPKcjj(ptr noundef %61, i32 noundef 4, i32 noundef %62)
  store i32 %63, ptr %5, align 4
  br label %64

64:                                               ; preds = %37, %29, %16
  call void @llvm.lifetime.end.p0(i64 8, ptr %7) #17
  br label %65

65:                                               ; preds = %64
  %66 = load i32, ptr %6, align 4
  %67 = add i32 %66, 1
  store i32 %67, ptr %6, align 4
  br label %9, !llvm.loop !23

68:                                               ; preds = %15
  %69 = load i32, ptr %5, align 4
  call void @llvm.lifetime.end.p0(i64 4, ptr %5) #17
  ret i32 %69
}