; Function Attrs: mustprogress nofree nounwind willreturn memory(read, inaccessiblemem: none) uwtable
define hidden noundef i32 @_ZN6Assimp19ComputeMaterialHashEPK10aiMaterialb(ptr noundef readonly captures(none) %0, i1 noundef zeroext %1) local_unnamed_addr #7 {
  %3 = getelementptr inbounds nuw i8, ptr %0, i64 8
  %4 = load i32, ptr %3, align 8
  %.not74 = icmp eq i32 %4, 0
  br i1 %.not74, label %._crit_edge, label %.lr.ph

.lr.ph:                                           ; preds = %2
  %5 = load ptr, ptr %0, align 8
  %wide.trip.count = zext i32 %4 to i64
  br label %6

._crit_edge:                                      ; preds = %199, %2
  %.0.lcssa = phi i32 [ 1503, %2 ], [ %.1, %199 ]
  ret i32 %.0.lcssa

6:                                                ; preds = %.lr.ph, %199
  %indvars.iv = phi i64 [ 0, %.lr.ph ], [ %indvars.iv.next, %199 ]
  %.073 = phi i32 [ 1503, %.lr.ph ], [ %.1, %199 ]
  %7 = getelementptr inbounds nuw ptr, ptr %5, i64 %indvars.iv
  %8 = load ptr, ptr %7, align 8
  %.not = icmp eq ptr %8, null
  br i1 %.not, label %199, label %9

9:                                                ; preds = %6
  br i1 %1, label %13, label %10

10:                                               ; preds = %9
  %11 = getelementptr inbounds nuw i8, ptr %8, i64 4
  %12 = load i8, ptr %11, align 4
  %.not20 = icmp eq i8 %12, 63
  br i1 %.not20, label %199, label %13

13:                                               ; preds = %10, %9
  %14 = getelementptr inbounds nuw i8, ptr %8, i64 4
  %15 = load i32, ptr %8, align 8
  %16 = icmp eq i32 %15, 0
  br i1 %16, label %17, label %20

17:                                               ; preds = %13
  %18 = tail call i64 @strlen(ptr noundef nonnull dereferenceable(1) %14) #23
  %19 = trunc i64 %18 to i32
  br label %20

20:                                               ; preds = %17, %13
  %.056.i = phi i32 [ %19, %17 ], [ %15, %13 ]
  %21 = and i32 %.056.i, 3
  %.not60.i = icmp ult i32 %.056.i, 4
  br i1 %.not60.i, label %._crit_edge.i, label %.lr.ph.preheader.i

.lr.ph.preheader.i:                               ; preds = %20
  %22 = lshr i32 %.056.i, 2
  br label %.lr.ph.i

.lr.ph.i:                                         ; preds = %.lr.ph.i, %.lr.ph.preheader.i
  %.05463.i = phi ptr [ %33, %.lr.ph.i ], [ %14, %.lr.ph.preheader.i ]
  %.05562.i = phi i32 [ %35, %.lr.ph.i ], [ %.073, %.lr.ph.preheader.i ]
  %.15761.i = phi i32 [ %36, %.lr.ph.i ], [ %22, %.lr.ph.preheader.i ]
  %23 = load i16, ptr %.05463.i, align 1
  %24 = zext i16 %23 to i32
  %25 = add i32 %.05562.i, %24
  %26 = getelementptr inbounds nuw i8, ptr %.05463.i, i64 2
  %27 = load i16, ptr %26, align 1
  %28 = zext i16 %27 to i32
  %29 = shl nuw nsw i32 %28, 11
  %30 = shl i32 %25, 16
  %31 = xor i32 %29, %30
  %32 = xor i32 %31, %25
  %33 = getelementptr inbounds nuw i8, ptr %.05463.i, i64 4
  %34 = lshr i32 %32, 11
  %35 = add i32 %34, %32
  %36 = add nsw i32 %.15761.i, -1
  %.not.i = icmp eq i32 %36, 0
  br i1 %.not.i, label %._crit_edge.i, label %.lr.ph.i, !llvm.loop !22

._crit_edge.i:                                    ; preds = %.lr.ph.i, %20
  %.055.lcssa.i = phi i32 [ %.073, %20 ], [ %35, %.lr.ph.i ]
  %.054.lcssa.i = phi ptr [ %14, %20 ], [ %33, %.lr.ph.i ]
  switch i32 %21, label %default.unreachable [
    i32 3, label %37
    i32 2, label %51
    i32 1, label %59
    i32 0, label %_Z13SuperFastHashPKcjj.exit
  ]

37:                                               ; preds = %._crit_edge.i
  %38 = load i16, ptr %.054.lcssa.i, align 1
  %39 = zext i16 %38 to i32
  %40 = add i32 %.055.lcssa.i, %39
  %41 = shl i32 %40, 16
  %42 = getelementptr inbounds nuw i8, ptr %.054.lcssa.i, i64 2
  %43 = load i8, ptr %42, align 1
  %44 = tail call i8 @llvm.abs.i8(i8 %43, i1 false)
  %45 = zext i8 %44 to i32
  %46 = shl nuw nsw i32 %45, 18
  %47 = xor i32 %41, %46
  %48 = xor i32 %47, %40
  %49 = lshr i32 %48, 11
  %50 = add i32 %49, %48
  br label %_Z13SuperFastHashPKcjj.exit

51:                                               ; preds = %._crit_edge.i
  %52 = load i16, ptr %.054.lcssa.i, align 1
  %53 = zext i16 %52 to i32
  %54 = add i32 %.055.lcssa.i, %53
  %55 = shl i32 %54, 11
  %56 = xor i32 %55, %54
  %57 = lshr i32 %56, 17
  %58 = add i32 %57, %56
  br label %_Z13SuperFastHashPKcjj.exit

59:                                               ; preds = %._crit_edge.i
  %60 = load i8, ptr %.054.lcssa.i, align 1
  %61 = sext i8 %60 to i32
  %62 = add i32 %.055.lcssa.i, %61
  %63 = shl i32 %62, 10
  %64 = xor i32 %63, %62
  %65 = lshr i32 %64, 1
  %66 = add i32 %65, %64
  br label %_Z13SuperFastHashPKcjj.exit

default.unreachable:                              ; preds = %._crit_edge.i29, %._crit_edge.i
  unreachable

_Z13SuperFastHashPKcjj.exit:                      ; preds = %._crit_edge.i, %37, %51, %59
  %.1.i = phi i32 [ %.055.lcssa.i, %._crit_edge.i ], [ %66, %59 ], [ %58, %51 ], [ %50, %37 ]
  %67 = shl i32 %.1.i, 3
  %68 = xor i32 %67, %.1.i
  %69 = lshr i32 %68, 5
  %70 = add i32 %69, %68
  %71 = shl i32 %70, 4
  %72 = xor i32 %71, %70
  %73 = lshr i32 %72, 17
  %74 = add i32 %73, %72
  %75 = shl i32 %74, 25
  %76 = xor i32 %75, %74
  %77 = lshr i32 %76, 6
  %78 = add i32 %77, %76
  %79 = getelementptr inbounds nuw i8, ptr %8, i64 1048
  %80 = load ptr, ptr %79, align 8
  %81 = icmp eq ptr %80, null
  br i1 %81, label %_Z13SuperFastHashPKcjj.exit34, label %82

82:                                               ; preds = %_Z13SuperFastHashPKcjj.exit
  %83 = getelementptr inbounds nuw i8, ptr %8, i64 1036
  %84 = load i32, ptr %83, align 4
  %85 = icmp eq i32 %84, 0
  br i1 %85, label %86, label %89

86:                                               ; preds = %82
  %87 = tail call i64 @strlen(ptr noundef nonnull dereferenceable(1) %80) #23
  %88 = trunc i64 %87 to i32
  br label %89

89:                                               ; preds = %86, %82
  %.056.i21 = phi i32 [ %88, %86 ], [ %84, %82 ]
  %90 = and i32 %.056.i21, 3
  %.not60.i22 = icmp ult i32 %.056.i21, 4
  br i1 %.not60.i22, label %._crit_edge.i29, label %.lr.ph.preheader.i23

.lr.ph.preheader.i23:                             ; preds = %89
  %91 = lshr i32 %.056.i21, 2
  br label %.lr.ph.i24

.lr.ph.i24:                                       ; preds = %.lr.ph.i24, %.lr.ph.preheader.i23
  %.05463.i25 = phi ptr [ %102, %.lr.ph.i24 ], [ %80, %.lr.ph.preheader.i23 ]
  %.05562.i26 = phi i32 [ %104, %.lr.ph.i24 ], [ %78, %.lr.ph.preheader.i23 ]
  %.15761.i27 = phi i32 [ %105, %.lr.ph.i24 ], [ %91, %.lr.ph.preheader.i23 ]
  %92 = load i16, ptr %.05463.i25, align 1
  %93 = zext i16 %92 to i32
  %94 = add i32 %.05562.i26, %93
  %95 = getelementptr inbounds nuw i8, ptr %.05463.i25, i64 2
  %96 = load i16, ptr %95, align 1
  %97 = zext i16 %96 to i32
  %98 = shl nuw nsw i32 %97, 11
  %99 = shl i32 %94, 16
  %100 = xor i32 %98, %99
  %101 = xor i32 %100, %94
  %102 = getelementptr inbounds nuw i8, ptr %.05463.i25, i64 4
  %103 = lshr i32 %101, 11
  %104 = add i32 %103, %101
  %105 = add nsw i32 %.15761.i27, -1
  %.not.i28 = icmp eq i32 %105, 0
  br i1 %.not.i28, label %._crit_edge.i29, label %.lr.ph.i24, !llvm.loop !22

._crit_edge.i29:                                  ; preds = %.lr.ph.i24, %89
  %.055.lcssa.i30 = phi i32 [ %78, %89 ], [ %104, %.lr.ph.i24 ]
  %.054.lcssa.i31 = phi ptr [ %80, %89 ], [ %102, %.lr.ph.i24 ]
  switch i32 %90, label %default.unreachable [
    i32 3, label %106
    i32 2, label %120
    i32 1, label %128
    i32 0, label %136
  ]

106:                                              ; preds = %._crit_edge.i29
  %107 = load i16, ptr %.054.lcssa.i31, align 1
  %108 = zext i16 %107 to i32
  %109 = add i32 %.055.lcssa.i30, %108
  %110 = shl i32 %109, 16
  %111 = getelementptr inbounds nuw i8, ptr %.054.lcssa.i31, i64 2
  %112 = load i8, ptr %111, align 1
  %113 = tail call i8 @llvm.abs.i8(i8 %112, i1 false)
  %114 = zext i8 %113 to i32
  %115 = shl nuw nsw i32 %114, 18
  %116 = xor i32 %110, %115
  %117 = xor i32 %116, %109
  %118 = lshr i32 %117, 11
  %119 = add i32 %118, %117
  br label %136

120:                                              ; preds = %._crit_edge.i29
  %121 = load i16, ptr %.054.lcssa.i31, align 1
  %122 = zext i16 %121 to i32
  %123 = add i32 %.055.lcssa.i30, %122
  %124 = shl i32 %123, 11
  %125 = xor i32 %124, %123
  %126 = lshr i32 %125, 17
  %127 = add i32 %126, %125
  br label %136

128:                                              ; preds = %._crit_edge.i29
  %129 = load i8, ptr %.054.lcssa.i31, align 1
  %130 = sext i8 %129 to i32
  %131 = add i32 %.055.lcssa.i30, %130
  %132 = shl i32 %131, 10
  %133 = xor i32 %132, %131
  %134 = lshr i32 %133, 1
  %135 = add i32 %134, %133
  br label %136

136:                                              ; preds = %128, %120, %106, %._crit_edge.i29
  %.1.i32 = phi i32 [ %.055.lcssa.i30, %._crit_edge.i29 ], [ %135, %128 ], [ %127, %120 ], [ %119, %106 ]
  %137 = shl i32 %.1.i32, 3
  %138 = xor i32 %137, %.1.i32
  %139 = lshr i32 %138, 5
  %140 = add i32 %139, %138
  %141 = shl i32 %140, 4
  %142 = xor i32 %141, %140
  %143 = lshr i32 %142, 17
  %144 = add i32 %143, %142
  %145 = shl i32 %144, 25
  %146 = xor i32 %145, %144
  %147 = lshr i32 %146, 6
  %148 = add i32 %147, %146
  br label %_Z13SuperFastHashPKcjj.exit34

_Z13SuperFastHashPKcjj.exit34:                    ; preds = %_Z13SuperFastHashPKcjj.exit, %136
  %.0.i = phi i32 [ %148, %136 ], [ 0, %_Z13SuperFastHashPKcjj.exit ]
  %149 = getelementptr inbounds nuw i8, ptr %8, i64 1028
  %150 = load i16, ptr %149, align 1
  %151 = zext i16 %150 to i32
  %152 = add i32 %.0.i, %151
  %153 = getelementptr inbounds nuw i8, ptr %8, i64 1030
  %154 = load i16, ptr %153, align 1
  %155 = zext i16 %154 to i32
  %156 = shl nuw nsw i32 %155, 11
  %157 = shl i32 %152, 16
  %158 = xor i32 %156, %157
  %159 = xor i32 %158, %152
  %160 = lshr i32 %159, 11
  %161 = add i32 %160, %159
  %162 = shl i32 %161, 3
  %163 = xor i32 %162, %161
  %164 = lshr i32 %163, 5
  %165 = add i32 %164, %163
  %166 = shl i32 %165, 4
  %167 = xor i32 %166, %165
  %168 = lshr i32 %167, 17
  %169 = add i32 %168, %167
  %170 = shl i32 %169, 25
  %171 = xor i32 %170, %169
  %172 = lshr i32 %171, 6
  %173 = add i32 %172, %171
  %174 = getelementptr inbounds nuw i8, ptr %8, i64 1032
  %175 = load i16, ptr %174, align 1
  %176 = zext i16 %175 to i32
  %177 = add i32 %173, %176
  %178 = getelementptr inbounds nuw i8, ptr %8, i64 1034
  %179 = load i16, ptr %178, align 1
  %180 = zext i16 %179 to i32
  %181 = shl nuw nsw i32 %180, 11
  %182 = shl i32 %177, 16
  %183 = xor i32 %181, %182
  %184 = xor i32 %183, %177
  %185 = lshr i32 %184, 11
  %186 = add i32 %185, %184
  %187 = shl i32 %186, 3
  %188 = xor i32 %187, %186
  %189 = lshr i32 %188, 5
  %190 = add i32 %189, %188
  %191 = shl i32 %190, 4
  %192 = xor i32 %191, %190
  %193 = lshr i32 %192, 17
  %194 = add i32 %193, %192
  %195 = shl i32 %194, 25
  %196 = xor i32 %195, %194
  %197 = lshr i32 %196, 6
  %198 = add i32 %197, %196
  br label %199

199:                                              ; preds = %_Z13SuperFastHashPKcjj.exit34, %10, %6
  %.1 = phi i32 [ %198, %_Z13SuperFastHashPKcjj.exit34 ], [ %.073, %10 ], [ %.073, %6 ]
  %indvars.iv.next = add nuw nsw i64 %indvars.iv, 1
  %exitcond.not = icmp eq i64 %indvars.iv.next, %wide.trip.count
  br i1 %exitcond.not, label %._crit_edge, label %6, !llvm.loop !23
}